; Function Attrs: mustprogress nounwind uwtable
define void @_ZN24CpuPpLongRangeNonbondedsD2Ev(ptr nocapture noundef nonnull align 8 dereferenceable(216) %0) unnamed_addr #2 align 2 personality ptr @__gxx_personality_v0 {
  %2 = getelementptr inbounds i8, ptr %0, i64 192
  %3 = load ptr, ptr %2, align 8
  %.not.i = icmp eq ptr %3, null
  br i1 %.not.i, label %_ZNSt10unique_ptrI15gmx_ewald_tab_tSt14default_deleteIS0_EED2Ev.exit, label %_ZNKSt14default_deleteI15gmx_ewald_tab_tEclEPS0_.exit.i

_ZNKSt14default_deleteI15gmx_ewald_tab_tEclEPS0_.exit.i: ; preds = %1
  tail call void @_ZN15gmx_ewald_tab_tD1Ev(ptr noundef nonnull align 8 dereferenceable(64) %3) #12
  tail call void @_ZdlPv(ptr noundef nonnull %3) #20
  br label %_ZNSt10unique_ptrI15gmx_ewald_tab_tSt14default_deleteIS0_EED2Ev.exit

_ZNSt10unique_ptrI15gmx_ewald_tab_tSt14default_deleteIS0_EED2Ev.exit: ; preds = %1, %_ZNKSt14default_deleteI15gmx_ewald_tab_tEclEPS0_.exit.i
  store ptr null, ptr %2, align 8
  %4 = getelementptr inbounds i8, ptr %0, i64 168
  %5 = load ptr, ptr %4, align 8
  %.not.i.i.i = icmp eq ptr %5, null
  br i1 %.not.i.i.i, label %_ZNSt6vectorI19ewald_corr_thread_tSaIS0_EED2Ev.exit, label %6

6:                                                ; preds = %_ZNSt10unique_ptrI15gmx_ewald_tab_tSt14default_deleteIS0_EED2Ev.exit
  tail call void @_ZdlPv(ptr noundef nonnull %5) #20
  br label %_ZNSt6vectorI19ewald_corr_thread_tSaIS0_EED2Ev.exit

_ZNSt6vectorI19ewald_corr_thread_tSaIS0_EED2Ev.exit: ; preds = %_ZNSt10unique_ptrI15gmx_ewald_tab_tSt14default_deleteIS0_EED2Ev.exit, %6
  ret void
}